target datalayout = "e-m:e-p270:32:32-p271:32:32-p272:64:64-i64:64-i128:128-f80:128-n8:16:32:64-S128"
target triple = "x86_64-pc-linux-gnu"

%class.parameter = type { %"class.std::variant" }
%"class.std::variant" = type { %"struct.std::__detail::__variant::_Variant_base.base", [7 x i8] }
%"struct.std::__detail::__variant::_Variant_base.base" = type { %"struct.std::__detail::__variant::_Move_assign_base.base" }
%"struct.std::__detail::__variant::_Move_assign_base.base" = type { %"struct.std::__detail::__variant::_Copy_assign_base.base" }
%"struct.std::__detail::__variant::_Copy_assign_base.base" = type { %"struct.std::__detail::__variant::_Move_ctor_base.base" }
%"struct.std::__detail::__variant::_Move_ctor_base.base" = type { %"struct.std::__detail::__variant::_Copy_ctor_base.base" }
%"struct.std::__detail::__variant::_Copy_ctor_base.base" = type { %"struct.std::__detail::__variant::_Variant_storage.base" }
%"struct.std::__detail::__variant::_Variant_storage.base" = type <{ %"union.std::__detail::__variant::_Variadic_union", i8 }>
%"union.std::__detail::__variant::_Variadic_union" = type { %"union.std::__detail::__variant::_Variadic_union.0" }
%"union.std::__detail::__variant::_Variadic_union.0" = type { %"struct.std::__detail::__variant::_Uninitialized.1" }
%"struct.std::__detail::__variant::_Uninitialized.1" = type { ptr }
%class.decl_info = type <{ i32, i32, %class.vector.39, i8, [7 x i8] }>
%class.vector.39 = type { ptr }
%class.decl_info.base = type <{ i32, i32, %class.vector.39, i8 }>
%struct.func_decl_info = type <{ %class.decl_info.base, i16, [5 x i8] }>

; Function Attrs: mustprogress uwtable
define linkonce_odr hidden noundef zeroext i1 @_ZNK9parameterneERKS_(ptr noundef nonnull align 8 dereferenceable(16) %0, ptr noundef nonnull align 8 dereferenceable(16) %1) #6 comdat align 2 {
  %3 = alloca ptr, align 8
  %4 = alloca ptr, align 8
  store ptr %0, ptr %3, align 8, !tbaa !3
  store ptr %1, ptr %4, align 8, !tbaa !3
  %5 = load ptr, ptr %3, align 8
  %6 = load ptr, ptr %4, align 8, !tbaa !3
  %7 = call noundef zeroext i1 @_ZNK9parametereqERKS_(ptr noundef nonnull align 8 dereferenceable(16) %5, ptr noundef nonnull align 8 dereferenceable(16) %6)
  %8 = xor i1 %7, true
  ret i1 %8
}

; Function Attrs: mustprogress nounwind uwtable
define linkonce_odr hidden noundef nonnull align 8 dereferenceable(16) ptr @_ZNK6vectorI9parameterLb1EjEixEj(ptr noundef nonnull align 8 dereferenceable(8) %0, i32 noundef %1) #4 comdat align 2 {
  %3 = alloca ptr, align 8
  %4 = alloca i32, align 4
  store ptr %0, ptr %3, align 8, !tbaa !87
  store i32 %1, ptr %4, align 4, !tbaa !25
  %5 = load ptr, ptr %3, align 8
  %6 = getelementptr inbounds nuw %class.vector.39, ptr %5, i32 0, i32 0
  %7 = load ptr, ptr %6, align 8, !tbaa !89
  %8 = load i32, ptr %4, align 4, !tbaa !25
  %9 = zext i32 %8 to i64
  %10 = getelementptr inbounds nuw %class.parameter, ptr %7, i64 %9
  ret ptr %10
}

; Function Attrs: mustprogress nounwind uwtable
define linkonce_odr hidden noundef i32 @_ZNK6vectorI9parameterLb1EjE4sizeEv(ptr noundef nonnull align 8 dereferenceable(8) %0) #4 comdat align 2 {
  %2 = alloca i32, align 4
  %3 = alloca ptr, align 8
  store ptr %0, ptr %3, align 8, !tbaa !87
  %4 = load ptr, ptr %3, align 8
  %5 = getelementptr inbounds nuw %class.vector.39, ptr %4, i32 0, i32 0
  %6 = load ptr, ptr %5, align 8, !tbaa !89
  %7 = icmp eq ptr %6, null
  br i1 %7, label %8, label %9

8:                                                ; preds = %1
  store i32 0, ptr %2, align 4
  br label %14

9:                                                ; preds = %1
  %10 = getelementptr inbounds nuw %class.vector.39, ptr %4, i32 0, i32 0
  %11 = load ptr, ptr %10, align 8, !tbaa !89
  %12 = getelementptr inbounds i32, ptr %11, i64 -1
  %13 = load i32, ptr %12, align 4, !tbaa !25
  store i32 %13, ptr %2, align 4
  br label %14

14:                                               ; preds = %9, %8
  %15 = load i32, ptr %2, align 4
  ret i32 %15
}

; Function Attrs: mustprogress uwtable
define linkonce_odr hidden noundef zeroext i1 @_ZNK6vectorI9parameterLb1EjEeqERKS1_(ptr noundef nonnull align 8 dereferenceable(8) %0, ptr noundef nonnull align 8 dereferenceable(8) %1) #6 comdat align 2 {
  %3 = alloca i1, align 1
  %4 = alloca ptr, align 8
  %5 = alloca ptr, align 8
  %6 = alloca i32, align 4
  %7 = alloca i32, align 4
  store ptr %0, ptr %4, align 8, !tbaa !87
  store ptr %1, ptr %5, align 8, !tbaa !87
  %8 = load ptr, ptr %4, align 8
  %9 = load ptr, ptr %5, align 8, !tbaa !87
  %10 = icmp eq ptr %8, %9
  br i1 %10, label %11, label %12

11:                                               ; preds = %2
  store i1 true, ptr %3, align 1
  br label %39

12:                                               ; preds = %2
  %13 = call noundef i32 @_ZNK6vectorI9parameterLb1EjE4sizeEv(ptr noundef nonnull align 8 dereferenceable(8) %8)
  %14 = load ptr, ptr %5, align 8, !tbaa !87
  %15 = call noundef i32 @_ZNK6vectorI9parameterLb1EjE4sizeEv(ptr noundef nonnull align 8 dereferenceable(8) %14)
  %16 = icmp ne i32 %13, %15
  br i1 %16, label %17, label %18

17:                                               ; preds = %12
  store i1 false, ptr %3, align 1
  br label %39

18:                                               ; preds = %12
  call void @llvm.lifetime.start.p0(i64 4, ptr %6) #3
  store i32 0, ptr %6, align 4, !tbaa !25
  br label %19

19:                                               ; preds = %33, %18
  %20 = load i32, ptr %6, align 4, !tbaa !25
  %21 = call noundef i32 @_ZNK6vectorI9parameterLb1EjE4sizeEv(ptr noundef nonnull align 8 dereferenceable(8) %8)
  %22 = icmp ult i32 %20, %21
  br i1 %22, label %24, label %23

23:                                               ; preds = %19
  store i32 2, ptr %7, align 4
  br label %36

24:                                               ; preds = %19
  %25 = load i32, ptr %6, align 4, !tbaa !25
  %26 = call noundef nonnull align 8 dereferenceable(16) ptr @_ZNK6vectorI9parameterLb1EjEixEj(ptr noundef nonnull align 8 dereferenceable(8) %8, i32 noundef %25)
  %27 = load ptr, ptr %5, align 8, !tbaa !87
  %28 = load i32, ptr %6, align 4, !tbaa !25
  %29 = call noundef nonnull align 8 dereferenceable(16) ptr @_ZNK6vectorI9parameterLb1EjEixEj(ptr noundef nonnull align 8 dereferenceable(8) %27, i32 noundef %28)
  %30 = call noundef zeroext i1 @_ZNK9parameterneERKS_(ptr noundef nonnull align 8 dereferenceable(16) %26, ptr noundef nonnull align 8 dereferenceable(16) %29)
  br i1 %30, label %31, label %32

31:                                               ; preds = %24
  store i1 false, ptr %3, align 1
  store i32 1, ptr %7, align 4
  br label %36

32:                                               ; preds = %24
  br label %33

33:                                               ; preds = %32
  %34 = load i32, ptr %6, align 4, !tbaa !25
  %35 = add i32 %34, 1
  store i32 %35, ptr %6, align 4, !tbaa !25
  br label %19, !llvm.loop !96

36:                                               ; preds = %31, %23
  call void @llvm.lifetime.end.p0(i64 4, ptr %6) #3
  %37 = load i32, ptr %7, align 4
  switch i32 %37, label %41 [
    i32 2, label %38
    i32 1, label %39
  ]

38:                                               ; preds = %36
  store i1 true, ptr %3, align 1
  br label %39

39:                                               ; preds = %38, %36, %17, %11
  %40 = load i1, ptr %3, align 1
  ret i1 %40

41:                                               ; preds = %36
  unreachable
}

; Function Attrs: mustprogress uwtable
define hidden noundef zeroext i1 @_ZNK9decl_infoeqERKS_(ptr noundef nonnull align 8 dereferenceable(17) %0, ptr noundef nonnull align 8 dereferenceable(17) %1) #6 align 2 {
  %3 = alloca ptr, align 8
  %4 = alloca ptr, align 8
  store ptr %0, ptr %3, align 8, !tbaa !80
  store ptr %1, ptr %4, align 8, !tbaa !80
  %5 = load ptr, ptr %3, align 8
  %6 = getelementptr inbounds nuw %class.decl_info, ptr %5, i32 0, i32 0
  %7 = load i32, ptr %6, align 8, !tbaa !82
  %8 = load ptr, ptr %4, align 8, !tbaa !80
  %9 = getelementptr inbounds nuw %class.decl_info, ptr %8, i32 0, i32 0
  %10 = load i32, ptr %9, align 8, !tbaa !82
  %11 = icmp eq i32 %7, %10
  br i1 %11, label %12, label %24

12:                                               ; preds = %2
  %13 = getelementptr inbounds nuw %class.decl_info, ptr %5, i32 0, i32 1
  %14 = load i32, ptr %13, align 4, !tbaa !85
  %15 = load ptr, ptr %4, align 8, !tbaa !80
  %16 = getelementptr inbounds nuw %class.decl_info, ptr %15, i32 0, i32 1
  %17 = load i32, ptr %16, align 4, !tbaa !85
  %18 = icmp eq i32 %14, %17
  br i1 %18, label %19, label %24

19:                                               ; preds = %12
  %20 = getelementptr inbounds nuw %class.decl_info, ptr %5, i32 0, i32 2
  %21 = load ptr, ptr %4, align 8, !tbaa !80
  %22 = getelementptr inbounds nuw %class.decl_info, ptr %21, i32 0, i32 2
  %23 = call noundef zeroext i1 @_ZNK6vectorI9parameterLb1EjEeqERKS1_(ptr noundef nonnull align 8 dereferenceable(8) %20, ptr noundef nonnull align 8 dereferenceable(8) %22)
  br label %24

24:                                               ; preds = %19, %12, %2
  %25 = phi i1 [ false, %12 ], [ false, %2 ], [ %23, %19 ]
  ret i1 %25
}

; Function Attrs: mustprogress uwtable
define hidden noundef zeroext i1 @_ZNK14func_decl_infoeqERKS_(ptr noundef nonnull align 8 dereferenceable(19) %0, ptr noundef nonnull align 8 dereferenceable(19) %1) #6 align 2 {
  %3 = alloca ptr, align 8
  %4 = alloca ptr, align 8
  store ptr %0, ptr %3, align 8, !tbaa !106
  store ptr %1, ptr %4, align 8, !tbaa !106
  %5 = load ptr, ptr %3, align 8
  %6 = load ptr, ptr %4, align 8, !tbaa !106
  %7 = call noundef zeroext i1 @_ZNK9decl_infoeqERKS_(ptr noundef nonnull align 8 dereferenceable(17) %5, ptr noundef nonnull align 8 dereferenceable(17) %6)
  br i1 %7, label %8, label %141

8:                                                ; preds = %2
  %9 = getelementptr inbounds nuw %struct.func_decl_info, ptr %5, i32 0, i32 1
  %10 = load i16, ptr %9, align 1
  %11 = and i16 %10, 1
  %12 = trunc i16 %11 to i1
  %13 = zext i1 %12 to i32
  %14 = load ptr, ptr %4, align 8, !tbaa !106
  %15 = getelementptr inbounds nuw %struct.func_decl_info, ptr %14, i32 0, i32 1
  %16 = load i16, ptr %15, align 1
  %17 = and i16 %16, 1
  %18 = trunc i16 %17 to i1
  %19 = zext i1 %18 to i32
  %20 = icmp eq i32 %13, %19
  br i1 %20, label %21, label %141

21:                                               ; preds = %8
  %22 = getelementptr inbounds nuw %struct.func_decl_info, ptr %5, i32 0, i32 1
  %23 = load i16, ptr %22, align 1
  %24 = lshr i16 %23, 1
  %25 = and i16 %24, 1
  %26 = trunc i16 %25 to i1
  %27 = zext i1 %26 to i32
  %28 = load ptr, ptr %4, align 8, !tbaa !106
  %29 = getelementptr inbounds nuw %struct.func_decl_info, ptr %28, i32 0, i32 1
  %30 = load i16, ptr %29, align 1
  %31 = lshr i16 %30, 1
  %32 = and i16 %31, 1
  %33 = trunc i16 %32 to i1
  %34 = zext i1 %33 to i32
  %35 = icmp eq i32 %27, %34
  br i1 %35, label %36, label %141

36:                                               ; preds = %21
  %37 = getelementptr inbounds nuw %struct.func_decl_info, ptr %5, i32 0, i32 1
  %38 = load i16, ptr %37, align 1
  %39 = lshr i16 %38, 2
  %40 = and i16 %39, 1
  %41 = trunc i16 %40 to i1
  %42 = zext i1 %41 to i32
  %43 = load ptr, ptr %4, align 8, !tbaa !106
  %44 = getelementptr inbounds nuw %struct.func_decl_info, ptr %43, i32 0, i32 1
  %45 = load i16, ptr %44, align 1
  %46 = lshr i16 %45, 2
  %47 = and i16 %46, 1
  %48 = trunc i16 %47 to i1
  %49 = zext i1 %48 to i32
  %50 = icmp eq i32 %42, %49
  br i1 %50, label %51, label %141

51:                                               ; preds = %36
  %52 = getelementptr inbounds nuw %struct.func_decl_info, ptr %5, i32 0, i32 1
  %53 = load i16, ptr %52, align 1
  %54 = lshr i16 %53, 3
  %55 = and i16 %54, 1
  %56 = trunc i16 %55 to i1
  %57 = zext i1 %56 to i32
  %58 = load ptr, ptr %4, align 8, !tbaa !106
  %59 = getelementptr inbounds nuw %struct.func_decl_info, ptr %58, i32 0, i32 1
  %60 = load i16, ptr %59, align 1
  %61 = lshr i16 %60, 3
  %62 = and i16 %61, 1
  %63 = trunc i16 %62 to i1
  %64 = zext i1 %63 to i32
  %65 = icmp eq i32 %57, %64
  br i1 %65, label %66, label %141

66:                                               ; preds = %51
  %67 = getelementptr inbounds nuw %struct.func_decl_info, ptr %5, i32 0, i32 1
  %68 = load i16, ptr %67, align 1
  %69 = lshr i16 %68, 4
  %70 = and i16 %69, 1
  %71 = trunc i16 %70 to i1
  %72 = zext i1 %71 to i32
  %73 = load ptr, ptr %4, align 8, !tbaa !106
  %74 = getelementptr inbounds nuw %struct.func_decl_info, ptr %73, i32 0, i32 1
  %75 = load i16, ptr %74, align 1
  %76 = lshr i16 %75, 4
  %77 = and i16 %76, 1
  %78 = trunc i16 %77 to i1
  %79 = zext i1 %78 to i32
  %80 = icmp eq i32 %72, %79
  br i1 %80, label %81, label %141

81:                                               ; preds = %66
  %82 = getelementptr inbounds nuw %struct.func_decl_info, ptr %5, i32 0, i32 1
  %83 = load i16, ptr %82, align 1
  %84 = lshr i16 %83, 5
  %85 = and i16 %84, 1
  %86 = trunc i16 %85 to i1
  %87 = zext i1 %86 to i32
  %88 = load ptr, ptr %4, align 8, !tbaa !106
  %89 = getelementptr inbounds nuw %struct.func_decl_info, ptr %88, i32 0, i32 1
  %90 = load i16, ptr %89, align 1
  %91 = lshr i16 %90, 5
  %92 = and i16 %91, 1
  %93 = trunc i16 %92 to i1
  %94 = zext i1 %93 to i32
  %95 = icmp eq i32 %87, %94
  br i1 %95, label %96, label %141

96:                                               ; preds = %81
  %97 = getelementptr inbounds nuw %struct.func_decl_info, ptr %5, i32 0, i32 1
  %98 = load i16, ptr %97, align 1
  %99 = lshr i16 %98, 6
  %100 = and i16 %99, 1
  %101 = trunc i16 %100 to i1
  %102 = zext i1 %101 to i32
  %103 = load ptr, ptr %4, align 8, !tbaa !106
  %104 = getelementptr inbounds nuw %struct.func_decl_info, ptr %103, i32 0, i32 1
  %105 = load i16, ptr %104, align 1
  %106 = lshr i16 %105, 6
  %107 = and i16 %106, 1
  %108 = trunc i16 %107 to i1
  %109 = zext i1 %108 to i32
  %110 = icmp eq i32 %102, %109
  br i1 %110, label %111, label %141

111:                                              ; preds = %96
  %112 = getelementptr inbounds nuw %struct.func_decl_info, ptr %5, i32 0, i32 1
  %113 = load i16, ptr %112, align 1
  %114 = lshr i16 %113, 8
  %115 = and i16 %114, 1
  %116 = trunc i16 %115 to i1
  %117 = zext i1 %116 to i32
  %118 = load ptr, ptr %4, align 8, !tbaa !106
  %119 = getelementptr inbounds nuw %struct.func_decl_info, ptr %118, i32 0, i32 1
  %120 = load i16, ptr %119, align 1
  %121 = lshr i16 %120, 8
  %122 = and i16 %121, 1
  %123 = trunc i16 %122 to i1
  %124 = zext i1 %123 to i32
  %125 = icmp eq i32 %117, %124
  br i1 %125, label %126, label %141

126:                                              ; preds = %111
  %127 = getelementptr inbounds nuw %struct.func_decl_info, ptr %5, i32 0, i32 1
  %128 = load i16, ptr %127, align 1
  %129 = lshr i16 %128, 9
  %130 = and i16 %129, 1
  %131 = trunc i16 %130 to i1
  %132 = zext i1 %131 to i32
  %133 = load ptr, ptr %4, align 8, !tbaa !106
  %134 = getelementptr inbounds nuw %struct.func_decl_info, ptr %133, i32 0, i32 1
  %135 = load i16, ptr %134, align 1
  %136 = lshr i16 %135, 9
  %137 = and i16 %136, 1
  %138 = trunc i16 %137 to i1
  %139 = zext i1 %138 to i32
  %140 = icmp eq i32 %132, %139
  br label %141

141:                                              ; preds = %126, %111, %96, %81, %66, %51, %36, %21, %8, %2
  %142 = phi i1 [ false, %111 ], [ false, %96 ], [ false, %81 ], [ false, %66 ], [ false, %51 ], [ false, %36 ], [ false, %21 ], [ false, %8 ], [ false, %2 ], [ %140, %126 ]
  ret i1 %142
}