; Function Attrs: mustprogress uwtable
define hidden noundef zeroext i1 @_ZNK14func_decl_infoeqERKS_(ptr noundef nonnull readonly align 8 captures(address) dereferenceable(19) %0, ptr noundef nonnull readonly align 8 captures(address) dereferenceable(19) %1) local_unnamed_addr #7 align 2 {
  %3 = load i32, ptr %0, align 8, !tbaa !96
  %4 = load i32, ptr %1, align 8, !tbaa !96
  %5 = icmp eq i32 %3, %4
  br i1 %5, label %6, label %_ZNK9decl_infoeqERKS_.exit.thread

6:                                                ; preds = %2
  %7 = getelementptr inbounds nuw i8, ptr %0, i64 4
  %8 = load i32, ptr %7, align 4, !tbaa !100
  %9 = getelementptr inbounds nuw i8, ptr %1, i64 4
  %10 = load i32, ptr %9, align 4, !tbaa !100
  %11 = icmp eq i32 %8, %10
  br i1 %11, label %12, label %_ZNK9decl_infoeqERKS_.exit.thread

12:                                               ; preds = %6
  %13 = getelementptr inbounds nuw i8, ptr %0, i64 8
  %14 = getelementptr inbounds nuw i8, ptr %1, i64 8
  %15 = icmp eq ptr %0, %1
  br i1 %15, label %_ZNK9decl_infoeqERKS_.exit, label %16

16:                                               ; preds = %12
  %17 = load ptr, ptr %13, align 8, !tbaa !101
  %18 = icmp eq ptr %17, null
  br i1 %18, label %_ZNK6vectorI9parameterLb1EjE4sizeEv.exit.i.i, label %19

19:                                               ; preds = %16
  %20 = getelementptr inbounds i8, ptr %17, i64 -4
  %21 = load i32, ptr %20, align 4, !tbaa !24
  br label %_ZNK6vectorI9parameterLb1EjE4sizeEv.exit.i.i

_ZNK6vectorI9parameterLb1EjE4sizeEv.exit.i.i:     ; preds = %19, %16
  %.0.i.i.i = phi i32 [ %21, %19 ], [ 0, %16 ]
  %22 = load ptr, ptr %14, align 8, !tbaa !101
  %23 = icmp eq ptr %22, null
  br i1 %23, label %_ZNK6vectorI9parameterLb1EjE4sizeEv.exit14.i.i, label %24

24:                                               ; preds = %_ZNK6vectorI9parameterLb1EjE4sizeEv.exit.i.i
  %25 = getelementptr inbounds i8, ptr %22, i64 -4
  %26 = load i32, ptr %25, align 4, !tbaa !24
  br label %_ZNK6vectorI9parameterLb1EjE4sizeEv.exit14.i.i

_ZNK6vectorI9parameterLb1EjE4sizeEv.exit14.i.i:   ; preds = %24, %_ZNK6vectorI9parameterLb1EjE4sizeEv.exit.i.i
  %.0.i13.i.i = phi i32 [ %26, %24 ], [ 0, %_ZNK6vectorI9parameterLb1EjE4sizeEv.exit.i.i ]
  %.not.i.i = icmp eq i32 %.0.i.i.i, %.0.i13.i.i
  br i1 %.not.i.i, label %.preheader.i.i, label %_ZNK9decl_infoeqERKS_.exit.thread

.preheader.i.i:                                   ; preds = %_ZNK6vectorI9parameterLb1EjE4sizeEv.exit14.i.i, %33
  %indvars.iv.i.i = phi i64 [ %indvars.iv.next.i.i, %33 ], [ 0, %_ZNK6vectorI9parameterLb1EjE4sizeEv.exit14.i.i ]
  %27 = load ptr, ptr %13, align 8, !tbaa !101
  %28 = icmp eq ptr %27, null
  br i1 %28, label %_ZNK6vectorI9parameterLb1EjE4sizeEv.exit16.i.i, label %29

29:                                               ; preds = %.preheader.i.i
  %30 = getelementptr inbounds i8, ptr %27, i64 -4
  %31 = load i32, ptr %30, align 4, !tbaa !24
  %32 = zext i32 %31 to i64
  br label %_ZNK6vectorI9parameterLb1EjE4sizeEv.exit16.i.i

_ZNK6vectorI9parameterLb1EjE4sizeEv.exit16.i.i:   ; preds = %29, %.preheader.i.i
  %.0.i15.i.i = phi i64 [ %32, %29 ], [ 0, %.preheader.i.i ]
  %.not17.not.i.not.i = icmp samesign ult i64 %indvars.iv.i.i, %.0.i15.i.i
  br i1 %.not17.not.i.not.i, label %33, label %_ZNK9decl_infoeqERKS_.exit

33:                                               ; preds = %_ZNK6vectorI9parameterLb1EjE4sizeEv.exit16.i.i
  %34 = getelementptr inbounds nuw %class.parameter, ptr %27, i64 %indvars.iv.i.i
  %35 = load ptr, ptr %14, align 8, !tbaa !101
  %36 = getelementptr inbounds nuw %class.parameter, ptr %35, i64 %indvars.iv.i.i
  %37 = tail call noundef zeroext i1 @_ZNK9parametereqERKS_(ptr noundef nonnull align 8 dereferenceable(16) %34, ptr noundef nonnull align 8 dereferenceable(16) %36)
  %indvars.iv.next.i.i = add nuw nsw i64 %indvars.iv.i.i, 1
  br i1 %37, label %.preheader.i.i, label %_ZNK9decl_infoeqERKS_.exit.thread, !llvm.loop !105

_ZNK9decl_infoeqERKS_.exit:                       ; preds = %_ZNK6vectorI9parameterLb1EjE4sizeEv.exit16.i.i, %12
  %38 = getelementptr inbounds nuw i8, ptr %0, i64 17
  %39 = load i16, ptr %38, align 1
  %40 = getelementptr inbounds nuw i8, ptr %1, i64 17
  %41 = load i16, ptr %40, align 1
  %42 = xor i16 %41, %39
  %43 = and i16 %42, 383
  %or.cond31 = icmp eq i16 %43, 0
  br i1 %or.cond31, label %44, label %_ZNK9decl_infoeqERKS_.exit.thread

44:                                               ; preds = %_ZNK9decl_infoeqERKS_.exit
  %45 = and i16 %42, 512
  %46 = icmp eq i16 %45, 0
  br label %_ZNK9decl_infoeqERKS_.exit.thread

_ZNK9decl_infoeqERKS_.exit.thread:                ; preds = %33, %_ZNK6vectorI9parameterLb1EjE4sizeEv.exit14.i.i, %2, %6, %44, %_ZNK9decl_infoeqERKS_.exit
  %47 = phi i1 [ false, %_ZNK9decl_infoeqERKS_.exit ], [ %46, %44 ], [ false, %6 ], [ false, %2 ], [ false, %_ZNK6vectorI9parameterLb1EjE4sizeEv.exit14.i.i ], [ false, %33 ]
  ret i1 %47
}